; Function Attrs: nounwind uwtable
define range(i32 -29, 1) i32 @pmix20_bfrop_pack_persist(ptr noundef readnone captures(none) %0, ptr noundef %1, ptr noundef readonly captures(none) %2, i32 noundef %3, i16 noundef zeroext %4) local_unnamed_addr #0 {
  %6 = load i32, ptr getelementptr inbounds nuw (i8, ptr @pmix_bfrops_base_framework, i64 76), align 4, !tbaa !14
  %or.cond.i = icmp ult i32 %6, 64
  br i1 %or.cond.i, label %7, label %13

7:                                                ; preds = %5
  %8 = zext nneg i32 %6 to i64
  %9 = getelementptr inbounds nuw [0 x %struct.pmix_output_desc_t], ptr @pmix_output_info, i64 0, i64 %8, i32 2
  %10 = load i32, ptr %9, align 4, !tbaa !20
  %11 = icmp sgt i32 %10, 19
  br i1 %11, label %12, label %13

12:                                               ; preds = %7
  tail call void (i32, ptr, ...) @pmix_output(i32 noundef %6, ptr noundef nonnull @.str.2, i32 noundef %3) #8
  br label %13

13:                                               ; preds = %12, %7, %5
  %14 = sext i32 %3 to i64
  %15 = tail call ptr @pmix_bfrop_buffer_extend(ptr noundef %1, i64 noundef %14) #8
  %16 = icmp eq ptr %15, null
  br i1 %16, label %pmix20_bfrop_pack_byte.exit, label %17

17:                                               ; preds = %13
  tail call void @llvm.memcpy.p0.p0.i64(ptr nonnull align 1 %15, ptr readonly align 1 %2, i64 %14, i1 false)
  %18 = getelementptr inbounds nuw i8, ptr %1, i64 136
  %19 = load ptr, ptr %18, align 8, !tbaa !23
  %20 = getelementptr inbounds i8, ptr %19, i64 %14
  store ptr %20, ptr %18, align 8, !tbaa !23
  %21 = getelementptr inbounds nuw i8, ptr %1, i64 160
  %22 = load i64, ptr %21, align 8, !tbaa !24
  %23 = add i64 %22, %14
  store i64 %23, ptr %21, align 8, !tbaa !24
  br label %pmix20_bfrop_pack_byte.exit

pmix20_bfrop_pack_byte.exit:                      ; preds = %13, %17
  %.0.i = phi i32 [ 0, %17 ], [ -29, %13 ]
  ret i32 %.0.i
}